; ModuleID = '58/8.c'
source_filename = "58/8.c"
target datalayout = "e-m:e-p270:32:32-p271:32:32-p272:64:64-i64:64-f80:128-n8:16:32:64-S128"
target triple = "x86_64-pc-linux-gnu"

@.str = private unnamed_addr constant [4 x i8] c"%d\0A\00", align 1

; Function Attrs: noinline nounwind uwtable
define dso_local i32 @main() #0 {
  %1 = alloca i32, align 4
  %2 = alloca [100 x i8*], align 16
  %3 = alloca i32, align 4
  %4 = alloca i32, align 4
  %5 = alloca i32, align 4
  %6 = alloca i32, align 4
  store i32 0, i32* %1, align 4
  %7 = call i32 (i8*, ...) @__isoc99_scanf(i8* getelementptr inbounds ([4 x i8], [4 x i8]* @.str, i64 0, i64 0), i32* %5)
  store i32 0, i32* %3, align 4
  br label %8

8:                                                ; preds = %18, %0
  %9 = load i32, i32* %3, align 4
  %10 = load i32, i32* %5, align 4
  %11 = icmp slt i32 %9, %10
  br i1 %11, label %12, label %21

12:                                               ; preds = %8
  %13 = call noalias i8* @malloc(i64 80) #4
  %14 = getelementptr inbounds [100 x i8*], [100 x i8*]* %2, i64 0, i64 0
  %15 = load i32, i32* %3, align 4
  %16 = sext i32 %15 to i64
  %17 = getelementptr inbounds i8*, i8** %14, i64 %16
  store i8* %13, i8** %17, align 8
  br label %18

18:                                               ; preds = %12
  %19 = load i32, i32* %3, align 4
  %20 = add nsw i32 %19, 1
  store i32 %20, i32* %3, align 4
  br label %8

21:                                               ; preds = %8
  store i32 0, i32* %3, align 4
  br label %22

22:                                               ; preds = %33, %21
  %23 = load i32, i32* %3, align 4
  %24 = load i32, i32* %5, align 4
  %25 = icmp slt i32 %23, %24
  br i1 %25, label %26, label %36

26:                                               ; preds = %22
  %27 = getelementptr inbounds [100 x i8*], [100 x i8*]* %2, i64 0, i64 0
  %28 = load i32, i32* %3, align 4
  %29 = sext i32 %28 to i64
  %30 = getelementptr inbounds i8*, i8** %27, i64 %29
  %31 = load i8*, i8** %30, align 8
  %32 = call i32 (i8*, ...) bitcast (i32 (...)* @gets to i32 (i8*, ...)*)(i8* %31)
  br label %33

33:                                               ; preds = %26
  %34 = load i32, i32* %3, align 4
  %35 = add nsw i32 %34, 1
  store i32 %35, i32* %3, align 4
  br label %22

36:                                               ; preds = %22
  store i32 0, i32* %3, align 4
  br label %37

37:                                               ; preds = %191, %36
  %38 = load i32, i32* %3, align 4
  %39 = load i32, i32* %5, align 4
  %40 = icmp slt i32 %38, %39
  br i1 %40, label %41, label %194

41:                                               ; preds = %37
  store i32 1, i32* %6, align 4
  %42 = getelementptr inbounds [100 x i8*], [100 x i8*]* %2, i64 0, i64 0
  %43 = load i32, i32* %3, align 4
  %44 = sext i32 %43 to i64
  %45 = getelementptr inbounds i8*, i8** %42, i64 %44
  %46 = load i8*, i8** %45, align 8
  %47 = load i8, i8* %46, align 1
  %48 = sext i8 %47 to i32
  %49 = icmp sge i32 %48, 65
  br i1 %49, label %50, label %59

50:                                               ; preds = %41
  %51 = getelementptr inbounds [100 x i8*], [100 x i8*]* %2, i64 0, i64 0
  %52 = load i32, i32* %3, align 4
  %53 = sext i32 %52 to i64
  %54 = getelementptr inbounds i8*, i8** %51, i64 %53
  %55 = load i8*, i8** %54, align 8
  %56 = load i8, i8* %55, align 1
  %57 = sext i8 %56 to i32
  %58 = icmp sle i32 %57, 90
  br i1 %58, label %87, label %59

59:                                               ; preds = %50, %41
  %60 = getelementptr inbounds [100 x i8*], [100 x i8*]* %2, i64 0, i64 0
  %61 = load i32, i32* %3, align 4
  %62 = sext i32 %61 to i64
  %63 = getelementptr inbounds i8*, i8** %60, i64 %62
  %64 = load i8*, i8** %63, align 8
  %65 = load i8, i8* %64, align 1
  %66 = sext i8 %65 to i32
  %67 = icmp sge i32 %66, 97
  br i1 %67, label %68, label %77

68:                                               ; preds = %59
  %69 = getelementptr inbounds [100 x i8*], [100 x i8*]* %2, i64 0, i64 0
  %70 = load i32, i32* %3, align 4
  %71 = sext i32 %70 to i64
  %72 = getelementptr inbounds i8*, i8** %69, i64 %71
  %73 = load i8*, i8** %72, align 8
  %74 = load i8, i8* %73, align 1
  %75 = sext i8 %74 to i32
  %76 = icmp sle i32 %75, 122
  br i1 %76, label %87, label %77

77:                                               ; preds = %68, %59
  %78 = getelementptr inbounds [100 x i8*], [100 x i8*]* %2, i64 0, i64 0
  %79 = load i32, i32* %3, align 4
  %80 = sext i32 %79 to i64
  %81 = getelementptr inbounds i8*, i8** %78, i64 %80
  %82 = load i8*, i8** %81, align 8
  %83 = load i8, i8* %82, align 1
  %84 = sext i8 %83 to i32
  %85 = icmp eq i32 %84, 95
  br i1 %85, label %87, label %86

86:                                               ; preds = %77
  store i32 0, i32* %6, align 4
  br label %188

87:                                               ; preds = %77, %68, %50
  store i32 0, i32* %4, align 4
  br label %88

88:                                               ; preds = %184, %87
  %89 = load i32, i32* %4, align 4
  %90 = sext i32 %89 to i64
  %91 = getelementptr inbounds [100 x i8*], [100 x i8*]* %2, i64 0, i64 0
  %92 = load i32, i32* %3, align 4
  %93 = sext i32 %92 to i64
  %94 = getelementptr inbounds i8*, i8** %91, i64 %93
  %95 = load i8*, i8** %94, align 8
  %96 = call i64 @strlen(i8* %95) #5
  %97 = icmp ult i64 %90, %96
  br i1 %97, label %98, label %187

98:                                               ; preds = %88
  %99 = getelementptr inbounds [100 x i8*], [100 x i8*]* %2, i64 0, i64 0
  %100 = load i32, i32* %3, align 4
  %101 = sext i32 %100 to i64
  %102 = getelementptr inbounds i8*, i8** %99, i64 %101
  %103 = load i8*, i8** %102, align 8
  %104 = load i32, i32* %4, align 4
  %105 = sext i32 %104 to i64
  %106 = getelementptr inbounds i8, i8* %103, i64 %105
  %107 = load i8, i8* %106, align 1
  %108 = sext i8 %107 to i32
  %109 = icmp sge i32 %108, 65
  br i1 %109, label %110, label %122

110:                                              ; preds = %98
  %111 = getelementptr inbounds [100 x i8*], [100 x i8*]* %2, i64 0, i64 0
  %112 = load i32, i32* %3, align 4
  %113 = sext i32 %112 to i64
  %114 = getelementptr inbounds i8*, i8** %111, i64 %113
  %115 = load i8*, i8** %114, align 8
  %116 = load i32, i32* %4, align 4
  %117 = sext i32 %116 to i64
  %118 = getelementptr inbounds i8, i8* %115, i64 %117
  %119 = load i8, i8* %118, align 1
  %120 = sext i8 %119 to i32
  %121 = icmp sle i32 %120, 90
  br i1 %121, label %183, label %122

122:                                              ; preds = %110, %98
  %123 = getelementptr inbounds [100 x i8*], [100 x i8*]* %2, i64 0, i64 0
  %124 = load i32, i32* %3, align 4
  %125 = sext i32 %124 to i64
  %126 = getelementptr inbounds i8*, i8** %123, i64 %125
  %127 = load i8*, i8** %126, align 8
  %128 = load i32, i32* %4, align 4
  %129 = sext i32 %128 to i64
  %130 = getelementptr inbounds i8, i8* %127, i64 %129
  %131 = load i8, i8* %130, align 1
  %132 = sext i8 %131 to i32
  %133 = icmp sge i32 %132, 97
  br i1 %133, label %134, label %146

134:                                              ; preds = %122
  %135 = getelementptr inbounds [100 x i8*], [100 x i8*]* %2, i64 0, i64 0
  %136 = load i32, i32* %3, align 4
  %137 = sext i32 %136 to i64
  %138 = getelementptr inbounds i8*, i8** %135, i64 %137
  %139 = load i8*, i8** %138, align 8
  %140 = load i32, i32* %4, align 4
  %141 = sext i32 %140 to i64
  %142 = getelementptr inbounds i8, i8* %139, i64 %141
  %143 = load i8, i8* %142, align 1
  %144 = sext i8 %143 to i32
  %145 = icmp sle i32 %144, 122
  br i1 %145, label %183, label %146

146:                                              ; preds = %134, %122
  %147 = getelementptr inbounds [100 x i8*], [100 x i8*]* %2, i64 0, i64 0
  %148 = load i32, i32* %3, align 4
  %149 = sext i32 %148 to i64
  %150 = getelementptr inbounds i8*, i8** %147, i64 %149
  %151 = load i8*, i8** %150, align 8
  %152 = load i32, i32* %4, align 4
  %153 = sext i32 %152 to i64
  %154 = getelementptr inbounds i8, i8* %151, i64 %153
  %155 = load i8, i8* %154, align 1
  %156 = sext i8 %155 to i32
  %157 = icmp eq i32 %156, 95
  br i1 %157, label %183, label %158

158:                                              ; preds = %146
  %159 = getelementptr inbounds [100 x i8*], [100 x i8*]* %2, i64 0, i64 0
  %160 = load i32, i32* %3, align 4
  %161 = sext i32 %160 to i64
  %162 = getelementptr inbounds i8*, i8** %159, i64 %161
  %163 = load i8*, i8** %162, align 8
  %164 = load i32, i32* %4, align 4
  %165 = sext i32 %164 to i64
  %166 = getelementptr inbounds i8, i8* %163, i64 %165
  %167 = load i8, i8* %166, align 1
  %168 = sext i8 %167 to i32
  %169 = icmp sge i32 %168, 48
  br i1 %169, label %170, label %182

170:                                              ; preds = %158
  %171 = getelementptr inbounds [100 x i8*], [100 x i8*]* %2, i64 0, i64 0
  %172 = load i32, i32* %3, align 4
  %173 = sext i32 %172 to i64
  %174 = getelementptr inbounds i8*, i8** %171, i64 %173
  %175 = load i8*, i8** %174, align 8
  %176 = load i32, i32* %4, align 4
  %177 = sext i32 %176 to i64
  %178 = getelementptr inbounds i8, i8* %175, i64 %177
  %179 = load i8, i8* %178, align 1
  %180 = sext i8 %179 to i32
  %181 = icmp sle i32 %180, 57
  br i1 %181, label %183, label %182

182:                                              ; preds = %170, %158
  store i32 0, i32* %6, align 4
  br label %187

183:                                              ; preds = %170, %146, %134, %110
  br label %184

184:                                              ; preds = %183
  %185 = load i32, i32* %4, align 4
  %186 = add nsw i32 %185, 1
  store i32 %186, i32* %4, align 4
  br label %88

187:                                              ; preds = %182, %88
  br label %188

188:                                              ; preds = %187, %86
  %189 = load i32, i32* %6, align 4
  %190 = call i32 (i8*, ...) @printf(i8* getelementptr inbounds ([4 x i8], [4 x i8]* @.str, i64 0, i64 0), i32 %189)
  br label %191

191:                                              ; preds = %188
  %192 = load i32, i32* %3, align 4
  %193 = add nsw i32 %192, 1
  store i32 %193, i32* %3, align 4
  br label %37

194:                                              ; preds = %37
  ret i32 0
}

declare dso_local i32 @__isoc99_scanf(i8*, ...) #1

; Function Attrs: nounwind
declare dso_local noalias i8* @malloc(i64) #2

declare dso_local i32 @gets(...) #1

; Function Attrs: nounwind readonly
declare dso_local i64 @strlen(i8*) #3

declare dso_local i32 @printf(i8*, ...) #1


!llvm.module.flags = !{!0}
!llvm.ident = !{!1}

!0 = !{i32 1, !"wchar_size", i32 4}
!1 = !{!"clang version 10.0.0-4ubuntu1 "}
